target datalayout = "e-m:e-p270:32:32-p271:32:32-p272:64:64-i64:64-i128:128-f80:128-n8:16:32:64-S128"
target triple = "x86_64-pc-linux-gnu"

%class.anon.106 = type { ptr, ptr }
%"struct.Luau::NegationType" = type { ptr }

; Function Attrs: inlinehint mustprogress uwtable
define internal void @"_ZZN4Luau16toStringDetailedEPKNS_11TypePackVarERNS_15ToStringOptionsEENK3$_0clINS_12NegationTypeEEEDaT_"(ptr noundef nonnull align 8 dereferenceable(16) %0, ptr %1) #8 align 2 {
  %3 = alloca %"struct.Luau::NegationType", align 8
  %4 = alloca ptr, align 8
  %5 = getelementptr inbounds nuw %"struct.Luau::NegationType", ptr %3, i32 0, i32 0
  store ptr %1, ptr %5, align 8
  store ptr %0, ptr %4, align 8, !tbaa !137
  %6 = load ptr, ptr %4, align 8
  %7 = getelementptr inbounds nuw %class.anon.106, ptr %6, i32 0, i32 0
  %8 = load ptr, ptr %7, align 8, !tbaa !1066
  %9 = getelementptr inbounds nuw %class.anon.106, ptr %6, i32 0, i32 1
  %10 = load ptr, ptr %9, align 8, !tbaa !243
  call void @_ZN4Luau15TypeStringifierclEPKNS_4TypeERKNS_12NegationTypeE(ptr noundef nonnull align 8 dereferenceable(8) %8, ptr noundef %10, ptr noundef nonnull align 8 dereferenceable(8) %3)
  ret void
}

; Function Attrs: mustprogress uwtable
define internal void @"_ZN4LuauL8fnVisitVIZNS_16toStringDetailedEPKNS_11TypePackVarERNS_15ToStringOptionsEE3$_0KNS_12NegationTypeEEEvRT_PNSt11conditionalIXsr3stdE10is_const_vIT0_EEKvvE4typeE"(ptr noundef nonnull align 8 dereferenceable(16) %0, ptr noundef %1) #5 {
  %3 = alloca ptr, align 8
  %4 = alloca ptr, align 8
  %5 = alloca %"struct.Luau::NegationType", align 8
  store ptr %0, ptr %3, align 8, !tbaa !137
  store ptr %1, ptr %4, align 8, !tbaa !137
  %6 = load ptr, ptr %3, align 8, !tbaa !137
  %7 = load ptr, ptr %4, align 8, !tbaa !137
  call void @llvm.memcpy.p0.p0.i64(ptr align 8 %5, ptr align 8 %7, i64 8, i1 false), !tbaa.struct !1063
  %8 = getelementptr inbounds nuw %"struct.Luau::NegationType", ptr %5, i32 0, i32 0
  %9 = load ptr, ptr %8, align 8
  call void @"_ZZN4Luau16toStringDetailedEPKNS_11TypePackVarERNS_15ToStringOptionsEENK3$_0clINS_12NegationTypeEEEDaT_"(ptr noundef nonnull align 8 dereferenceable(16) %6, ptr %9)
  ret void
}