; Function Attrs: mustprogress uwtable
define internal void @"_ZN4LuauL8fnVisitVIZNS_16toStringDetailedEPKNS_11TypePackVarERNS_15ToStringOptionsEE3$_0KNS_12NegationTypeEEEvRT_PNSt11conditionalIXsr3stdE10is_const_vIT0_EEKvvE4typeE"(ptr noundef nonnull readonly align 8 captures(none) dereferenceable(16) %0, ptr noundef readonly captures(none) %1) #6 {
  %3 = alloca %"struct.Luau::NegationType", align 8
  %.sroa.0.0.copyload = load ptr, ptr %1, align 8, !tbaa !158
  %.val = load ptr, ptr %0, align 8, !tbaa !652
  %4 = getelementptr inbounds nuw i8, ptr %0, i64 8
  %.val2 = load ptr, ptr %4, align 8, !tbaa !250
  call void @llvm.lifetime.start.p0(i64 8, ptr nonnull %3)
  store ptr %.sroa.0.0.copyload, ptr %3, align 8
  call void @_ZN4Luau15TypeStringifierclEPKNS_4TypeERKNS_12NegationTypeE(ptr noundef nonnull align 8 dereferenceable(8) %.val, ptr noundef %.val2, ptr noundef nonnull align 8 dereferenceable(8) %3)
  call void @llvm.lifetime.end.p0(i64 8, ptr nonnull %3)
  ret void
}